target datalayout = "e-m:e-p270:32:32-p271:32:32-p272:64:64-i64:64-i128:128-f80:128-n8:16:32:64-S128"
target triple = "x86_64-pc-linux-gnu"

@.str.3 = private unnamed_addr constant [2 x i8] c"\0A\00", align 1
@.str.4 = private unnamed_addr constant [38 x i8] c"    opt_reduce [options] [selection]\0A\00", align 1
@.str.5 = private unnamed_addr constant [51 x i8] c"This pass performs two interlinked optimizations:\0A\00", align 1
@.str.6 = private unnamed_addr constant [72 x i8] c"1. it consolidates trees of large AND gates or OR gates and eliminates\0A\00", align 1
@.str.7 = private unnamed_addr constant [20 x i8] c"duplicated inputs.\0A\00", align 1
@.str.8 = private unnamed_addr constant [77 x i8] c"2. it identifies duplicated inputs to MUXes and replaces them with a single\0A\00", align 1
@.str.9 = private unnamed_addr constant [57 x i8] c"input with the original control signals OR'ed together.\0A\00", align 1
@.str.10 = private unnamed_addr constant [11 x i8] c"    -fine\0A\00", align 1
@.str.11 = private unnamed_addr constant [40 x i8] c"      perform fine-grain optimizations\0A\00", align 1
@.str.12 = private unnamed_addr constant [11 x i8] c"    -full\0A\00", align 1
@.str.13 = private unnamed_addr constant [23 x i8] c"      alias for -fine\0A\00", align 1

; Function Attrs: mustprogress uwtable
define internal void @_ZN12_GLOBAL__N_113OptReducePass4helpEv(ptr noundef nonnull align 8 dereferenceable(104) %0) unnamed_addr #4 align 2 {
  %2 = alloca ptr, align 8
  store ptr %0, ptr %2, align 8
  call void (ptr, ...) @_ZN5Yosys3logEPKcz(ptr noundef @.str.3)
  call void (ptr, ...) @_ZN5Yosys3logEPKcz(ptr noundef @.str.4)
  call void (ptr, ...) @_ZN5Yosys3logEPKcz(ptr noundef @.str.3)
  call void (ptr, ...) @_ZN5Yosys3logEPKcz(ptr noundef @.str.5)
  call void (ptr, ...) @_ZN5Yosys3logEPKcz(ptr noundef @.str.3)
  call void (ptr, ...) @_ZN5Yosys3logEPKcz(ptr noundef @.str.6)
  call void (ptr, ...) @_ZN5Yosys3logEPKcz(ptr noundef @.str.7)
  call void (ptr, ...) @_ZN5Yosys3logEPKcz(ptr noundef @.str.3)
  call void (ptr, ...) @_ZN5Yosys3logEPKcz(ptr noundef @.str.8)
  call void (ptr, ...) @_ZN5Yosys3logEPKcz(ptr noundef @.str.9)
  call void (ptr, ...) @_ZN5Yosys3logEPKcz(ptr noundef @.str.3)
  call void (ptr, ...) @_ZN5Yosys3logEPKcz(ptr noundef @.str.10)
  call void (ptr, ...) @_ZN5Yosys3logEPKcz(ptr noundef @.str.11)
  call void (ptr, ...) @_ZN5Yosys3logEPKcz(ptr noundef @.str.3)
  call void (ptr, ...) @_ZN5Yosys3logEPKcz(ptr noundef @.str.12)
  call void (ptr, ...) @_ZN5Yosys3logEPKcz(ptr noundef @.str.13)
  call void (ptr, ...) @_ZN5Yosys3logEPKcz(ptr noundef @.str.3)
  ret void
}